target datalayout = "e-m:e-p270:32:32-p271:32:32-p272:64:64-i64:64-i128:128-f80:128-n8:16:32:64-S128"
target triple = "x86_64-pc-linux-gnu"

%struct.MECmpContext = type { ptr, [6 x ptr], [6 x ptr], [6 x ptr], [6 x ptr], [6 x ptr], [6 x ptr], [6 x ptr], [6 x ptr], [6 x ptr], [6 x ptr], [6 x ptr], [6 x ptr], [6 x ptr], [6 x ptr], [2 x [4 x ptr]], [6 x ptr] }

; Function Attrs: cold nounwind optsize uwtable
define void @ff_me_cmp_init(ptr noundef %0, ptr noundef %1) #0 {
  %3 = alloca ptr, align 8
  %4 = alloca ptr, align 8
  store ptr %0, ptr %3, align 8, !tbaa !4
  store ptr %1, ptr %4, align 8, !tbaa !28
  %5 = load ptr, ptr %3, align 8, !tbaa !4
  call void @llvm.memset.p0.i64(ptr align 8 %5, i8 0, i64 792, i1 false)
  %6 = load ptr, ptr %3, align 8, !tbaa !4
  %7 = getelementptr inbounds nuw %struct.MECmpContext, ptr %6, i32 0, i32 0
  store ptr @sum_abs_dctelem_c, ptr %7, align 8, !tbaa !30
  %8 = load ptr, ptr %3, align 8, !tbaa !4
  %9 = getelementptr inbounds nuw %struct.MECmpContext, ptr %8, i32 0, i32 15
  %10 = getelementptr inbounds [2 x [4 x ptr]], ptr %9, i64 0, i64 0
  %11 = getelementptr inbounds [4 x ptr], ptr %10, i64 0, i64 0
  store ptr @pix_abs16_c, ptr %11, align 8, !tbaa !13
  %12 = load ptr, ptr %3, align 8, !tbaa !4
  %13 = getelementptr inbounds nuw %struct.MECmpContext, ptr %12, i32 0, i32 15
  %14 = getelementptr inbounds [2 x [4 x ptr]], ptr %13, i64 0, i64 0
  %15 = getelementptr inbounds [4 x ptr], ptr %14, i64 0, i64 1
  store ptr @pix_abs16_x2_c, ptr %15, align 8, !tbaa !13
  %16 = load ptr, ptr %3, align 8, !tbaa !4
  %17 = getelementptr inbounds nuw %struct.MECmpContext, ptr %16, i32 0, i32 15
  %18 = getelementptr inbounds [2 x [4 x ptr]], ptr %17, i64 0, i64 0
  %19 = getelementptr inbounds [4 x ptr], ptr %18, i64 0, i64 2
  store ptr @pix_abs16_y2_c, ptr %19, align 8, !tbaa !13
  %20 = load ptr, ptr %3, align 8, !tbaa !4
  %21 = getelementptr inbounds nuw %struct.MECmpContext, ptr %20, i32 0, i32 15
  %22 = getelementptr inbounds [2 x [4 x ptr]], ptr %21, i64 0, i64 0
  %23 = getelementptr inbounds [4 x ptr], ptr %22, i64 0, i64 3
  store ptr @pix_abs16_xy2_c, ptr %23, align 8, !tbaa !13
  %24 = load ptr, ptr %3, align 8, !tbaa !4
  %25 = getelementptr inbounds nuw %struct.MECmpContext, ptr %24, i32 0, i32 15
  %26 = getelementptr inbounds [2 x [4 x ptr]], ptr %25, i64 0, i64 1
  %27 = getelementptr inbounds [4 x ptr], ptr %26, i64 0, i64 0
  store ptr @pix_abs8_c, ptr %27, align 8, !tbaa !13
  %28 = load ptr, ptr %3, align 8, !tbaa !4
  %29 = getelementptr inbounds nuw %struct.MECmpContext, ptr %28, i32 0, i32 15
  %30 = getelementptr inbounds [2 x [4 x ptr]], ptr %29, i64 0, i64 1
  %31 = getelementptr inbounds [4 x ptr], ptr %30, i64 0, i64 1
  store ptr @pix_abs8_x2_c, ptr %31, align 8, !tbaa !13
  %32 = load ptr, ptr %3, align 8, !tbaa !4
  %33 = getelementptr inbounds nuw %struct.MECmpContext, ptr %32, i32 0, i32 15
  %34 = getelementptr inbounds [2 x [4 x ptr]], ptr %33, i64 0, i64 1
  %35 = getelementptr inbounds [4 x ptr], ptr %34, i64 0, i64 2
  store ptr @pix_abs8_y2_c, ptr %35, align 8, !tbaa !13
  %36 = load ptr, ptr %3, align 8, !tbaa !4
  %37 = getelementptr inbounds nuw %struct.MECmpContext, ptr %36, i32 0, i32 15
  %38 = getelementptr inbounds [2 x [4 x ptr]], ptr %37, i64 0, i64 1
  %39 = getelementptr inbounds [4 x ptr], ptr %38, i64 0, i64 3
  store ptr @pix_abs8_xy2_c, ptr %39, align 8, !tbaa !13
  %40 = load ptr, ptr %3, align 8, !tbaa !4
  %41 = getelementptr inbounds nuw %struct.MECmpContext, ptr %40, i32 0, i32 3
  %42 = getelementptr inbounds [6 x ptr], ptr %41, i64 0, i64 0
  store ptr @hadamard8_diff16_c, ptr %42, align 8, !tbaa !13
  %43 = load ptr, ptr %3, align 8, !tbaa !4
  %44 = getelementptr inbounds nuw %struct.MECmpContext, ptr %43, i32 0, i32 3
  %45 = getelementptr inbounds [6 x ptr], ptr %44, i64 0, i64 1
  store ptr @hadamard8_diff8x8_c, ptr %45, align 8, !tbaa !13
  %46 = load ptr, ptr %3, align 8, !tbaa !4
  %47 = getelementptr inbounds nuw %struct.MECmpContext, ptr %46, i32 0, i32 3
  %48 = getelementptr inbounds [6 x ptr], ptr %47, i64 0, i64 4
  store ptr @hadamard8_intra16_c, ptr %48, align 8, !tbaa !13
  %49 = load ptr, ptr %3, align 8, !tbaa !4
  %50 = getelementptr inbounds nuw %struct.MECmpContext, ptr %49, i32 0, i32 3
  %51 = getelementptr inbounds [6 x ptr], ptr %50, i64 0, i64 5
  store ptr @hadamard8_intra8x8_c, ptr %51, align 8, !tbaa !13
  %52 = load ptr, ptr %3, align 8, !tbaa !4
  %53 = getelementptr inbounds nuw %struct.MECmpContext, ptr %52, i32 0, i32 4
  %54 = getelementptr inbounds [6 x ptr], ptr %53, i64 0, i64 0
  store ptr @dct_sad16_c, ptr %54, align 8, !tbaa !13
  %55 = load ptr, ptr %3, align 8, !tbaa !4
  %56 = getelementptr inbounds nuw %struct.MECmpContext, ptr %55, i32 0, i32 4
  %57 = getelementptr inbounds [6 x ptr], ptr %56, i64 0, i64 1
  store ptr @dct_sad8x8_c, ptr %57, align 8, !tbaa !13
  %58 = load ptr, ptr %3, align 8, !tbaa !4
  %59 = getelementptr inbounds nuw %struct.MECmpContext, ptr %58, i32 0, i32 13
  %60 = getelementptr inbounds [6 x ptr], ptr %59, i64 0, i64 0
  store ptr @dct_max16_c, ptr %60, align 8, !tbaa !13
  %61 = load ptr, ptr %3, align 8, !tbaa !4
  %62 = getelementptr inbounds nuw %struct.MECmpContext, ptr %61, i32 0, i32 13
  %63 = getelementptr inbounds [6 x ptr], ptr %62, i64 0, i64 1
  store ptr @dct_max8x8_c, ptr %63, align 8, !tbaa !13
  %64 = load ptr, ptr %3, align 8, !tbaa !4
  %65 = getelementptr inbounds nuw %struct.MECmpContext, ptr %64, i32 0, i32 1
  %66 = getelementptr inbounds [6 x ptr], ptr %65, i64 0, i64 0
  store ptr @pix_abs16_c, ptr %66, align 8, !tbaa !13
  %67 = load ptr, ptr %3, align 8, !tbaa !4
  %68 = getelementptr inbounds nuw %struct.MECmpContext, ptr %67, i32 0, i32 1
  %69 = getelementptr inbounds [6 x ptr], ptr %68, i64 0, i64 1
  store ptr @pix_abs8_c, ptr %69, align 8, !tbaa !13
  %70 = load ptr, ptr %3, align 8, !tbaa !4
  %71 = getelementptr inbounds nuw %struct.MECmpContext, ptr %70, i32 0, i32 2
  %72 = getelementptr inbounds [6 x ptr], ptr %71, i64 0, i64 0
  store ptr @sse16_c, ptr %72, align 8, !tbaa !13
  %73 = load ptr, ptr %3, align 8, !tbaa !4
  %74 = getelementptr inbounds nuw %struct.MECmpContext, ptr %73, i32 0, i32 2
  %75 = getelementptr inbounds [6 x ptr], ptr %74, i64 0, i64 1
  store ptr @sse8_c, ptr %75, align 8, !tbaa !13
  %76 = load ptr, ptr %3, align 8, !tbaa !4
  %77 = getelementptr inbounds nuw %struct.MECmpContext, ptr %76, i32 0, i32 2
  %78 = getelementptr inbounds [6 x ptr], ptr %77, i64 0, i64 2
  store ptr @sse4_c, ptr %78, align 8, !tbaa !13
  %79 = load ptr, ptr %3, align 8, !tbaa !4
  %80 = getelementptr inbounds nuw %struct.MECmpContext, ptr %79, i32 0, i32 5
  %81 = getelementptr inbounds [6 x ptr], ptr %80, i64 0, i64 0
  store ptr @quant_psnr16_c, ptr %81, align 8, !tbaa !13
  %82 = load ptr, ptr %3, align 8, !tbaa !4
  %83 = getelementptr inbounds nuw %struct.MECmpContext, ptr %82, i32 0, i32 5
  %84 = getelementptr inbounds [6 x ptr], ptr %83, i64 0, i64 1
  store ptr @quant_psnr8x8_c, ptr %84, align 8, !tbaa !13
  %85 = load ptr, ptr %3, align 8, !tbaa !4
  %86 = getelementptr inbounds nuw %struct.MECmpContext, ptr %85, i32 0, i32 7
  %87 = getelementptr inbounds [6 x ptr], ptr %86, i64 0, i64 0
  store ptr @rd16_c, ptr %87, align 8, !tbaa !13
  %88 = load ptr, ptr %3, align 8, !tbaa !4
  %89 = getelementptr inbounds nuw %struct.MECmpContext, ptr %88, i32 0, i32 7
  %90 = getelementptr inbounds [6 x ptr], ptr %89, i64 0, i64 1
  store ptr @rd8x8_c, ptr %90, align 8, !tbaa !13
  %91 = load ptr, ptr %3, align 8, !tbaa !4
  %92 = getelementptr inbounds nuw %struct.MECmpContext, ptr %91, i32 0, i32 6
  %93 = getelementptr inbounds [6 x ptr], ptr %92, i64 0, i64 0
  store ptr @bit16_c, ptr %93, align 8, !tbaa !13
  %94 = load ptr, ptr %3, align 8, !tbaa !4
  %95 = getelementptr inbounds nuw %struct.MECmpContext, ptr %94, i32 0, i32 6
  %96 = getelementptr inbounds [6 x ptr], ptr %95, i64 0, i64 1
  store ptr @bit8x8_c, ptr %96, align 8, !tbaa !13
  %97 = load ptr, ptr %3, align 8, !tbaa !4
  %98 = getelementptr inbounds nuw %struct.MECmpContext, ptr %97, i32 0, i32 8
  %99 = getelementptr inbounds [6 x ptr], ptr %98, i64 0, i64 0
  store ptr @vsad16_c, ptr %99, align 8, !tbaa !13
  %100 = load ptr, ptr %3, align 8, !tbaa !4
  %101 = getelementptr inbounds nuw %struct.MECmpContext, ptr %100, i32 0, i32 8
  %102 = getelementptr inbounds [6 x ptr], ptr %101, i64 0, i64 1
  store ptr @vsad8_c, ptr %102, align 8, !tbaa !13
  %103 = load ptr, ptr %3, align 8, !tbaa !4
  %104 = getelementptr inbounds nuw %struct.MECmpContext, ptr %103, i32 0, i32 8
  %105 = getelementptr inbounds [6 x ptr], ptr %104, i64 0, i64 4
  store ptr @vsad_intra16_c, ptr %105, align 8, !tbaa !13
  %106 = load ptr, ptr %3, align 8, !tbaa !4
  %107 = getelementptr inbounds nuw %struct.MECmpContext, ptr %106, i32 0, i32 8
  %108 = getelementptr inbounds [6 x ptr], ptr %107, i64 0, i64 5
  store ptr @vsad_intra8_c, ptr %108, align 8, !tbaa !13
  %109 = load ptr, ptr %3, align 8, !tbaa !4
  %110 = getelementptr inbounds nuw %struct.MECmpContext, ptr %109, i32 0, i32 9
  %111 = getelementptr inbounds [6 x ptr], ptr %110, i64 0, i64 0
  store ptr @vsse16_c, ptr %111, align 8, !tbaa !13
  %112 = load ptr, ptr %3, align 8, !tbaa !4
  %113 = getelementptr inbounds nuw %struct.MECmpContext, ptr %112, i32 0, i32 9
  %114 = getelementptr inbounds [6 x ptr], ptr %113, i64 0, i64 1
  store ptr @vsse8_c, ptr %114, align 8, !tbaa !13
  %115 = load ptr, ptr %3, align 8, !tbaa !4
  %116 = getelementptr inbounds nuw %struct.MECmpContext, ptr %115, i32 0, i32 9
  %117 = getelementptr inbounds [6 x ptr], ptr %116, i64 0, i64 4
  store ptr @vsse_intra16_c, ptr %117, align 8, !tbaa !13
  %118 = load ptr, ptr %3, align 8, !tbaa !4
  %119 = getelementptr inbounds nuw %struct.MECmpContext, ptr %118, i32 0, i32 9
  %120 = getelementptr inbounds [6 x ptr], ptr %119, i64 0, i64 5
  store ptr @vsse_intra8_c, ptr %120, align 8, !tbaa !13
  %121 = load ptr, ptr %3, align 8, !tbaa !4
  %122 = getelementptr inbounds nuw %struct.MECmpContext, ptr %121, i32 0, i32 10
  %123 = getelementptr inbounds [6 x ptr], ptr %122, i64 0, i64 0
  store ptr @nsse16_c, ptr %123, align 8, !tbaa !13
  %124 = load ptr, ptr %3, align 8, !tbaa !4
  %125 = getelementptr inbounds nuw %struct.MECmpContext, ptr %124, i32 0, i32 10
  %126 = getelementptr inbounds [6 x ptr], ptr %125, i64 0, i64 1
  store ptr @nsse8_c, ptr %126, align 8, !tbaa !13
  %127 = load ptr, ptr %3, align 8, !tbaa !4
  call void @ff_dsputil_init_dwt(ptr noundef %127)
  %128 = load ptr, ptr %3, align 8, !tbaa !4
  %129 = getelementptr inbounds nuw %struct.MECmpContext, ptr %128, i32 0, i32 16
  %130 = getelementptr inbounds [6 x ptr], ptr %129, i64 0, i64 0
  store ptr @pix_median_abs16_c, ptr %130, align 8, !tbaa !13
  %131 = load ptr, ptr %3, align 8, !tbaa !4
  %132 = getelementptr inbounds nuw %struct.MECmpContext, ptr %131, i32 0, i32 16
  %133 = getelementptr inbounds [6 x ptr], ptr %132, i64 0, i64 1
  store ptr @pix_median_abs8_c, ptr %133, align 8, !tbaa !13
  ret void
}