; Function Attrs: cold nounwind optsize uwtable
define void @ff_me_cmp_init(ptr noundef initializes((0, 792)) %0, ptr noundef readnone captures(none) %1) local_unnamed_addr #0 {
  %3 = getelementptr inbounds nuw i8, ptr %0, i64 24
  tail call void @llvm.memset.p0.i64(ptr noundef nonnull align 8 dereferenceable(768) %3, i8 0, i64 768, i1 false)
  store ptr @sum_abs_dctelem_c, ptr %0, align 8, !tbaa !16
  %4 = getelementptr inbounds nuw i8, ptr %0, i64 680
  store ptr @pix_abs16_c, ptr %4, align 8, !tbaa !4
  %5 = getelementptr inbounds nuw i8, ptr %0, i64 688
  store ptr @pix_abs16_x2_c, ptr %5, align 8, !tbaa !4
  %6 = getelementptr inbounds nuw i8, ptr %0, i64 696
  store ptr @pix_abs16_y2_c, ptr %6, align 8, !tbaa !4
  %7 = getelementptr inbounds nuw i8, ptr %0, i64 704
  store ptr @pix_abs16_xy2_c, ptr %7, align 8, !tbaa !4
  %8 = getelementptr inbounds nuw i8, ptr %0, i64 712
  store ptr @pix_abs8_c, ptr %8, align 8, !tbaa !4
  %9 = getelementptr inbounds nuw i8, ptr %0, i64 720
  store ptr @pix_abs8_x2_c, ptr %9, align 8, !tbaa !4
  %10 = getelementptr inbounds nuw i8, ptr %0, i64 728
  store ptr @pix_abs8_y2_c, ptr %10, align 8, !tbaa !4
  %11 = getelementptr inbounds nuw i8, ptr %0, i64 736
  store ptr @pix_abs8_xy2_c, ptr %11, align 8, !tbaa !4
  %12 = getelementptr inbounds nuw i8, ptr %0, i64 104
  store ptr @hadamard8_diff16_c, ptr %12, align 8, !tbaa !4
  %13 = getelementptr inbounds nuw i8, ptr %0, i64 112
  store ptr @hadamard8_diff8x8_c, ptr %13, align 8, !tbaa !4
  %14 = getelementptr inbounds nuw i8, ptr %0, i64 136
  store ptr @hadamard8_intra16_c, ptr %14, align 8, !tbaa !4
  %15 = getelementptr inbounds nuw i8, ptr %0, i64 144
  store ptr @hadamard8_intra8x8_c, ptr %15, align 8, !tbaa !4
  %16 = getelementptr inbounds nuw i8, ptr %0, i64 152
  store ptr @dct_sad16_c, ptr %16, align 8, !tbaa !4
  %17 = getelementptr inbounds nuw i8, ptr %0, i64 160
  store ptr @dct_sad8x8_c, ptr %17, align 8, !tbaa !4
  %18 = getelementptr inbounds nuw i8, ptr %0, i64 584
  store ptr @dct_max16_c, ptr %18, align 8, !tbaa !4
  %19 = getelementptr inbounds nuw i8, ptr %0, i64 592
  store ptr @dct_max8x8_c, ptr %19, align 8, !tbaa !4
  %20 = getelementptr inbounds nuw i8, ptr %0, i64 8
  store ptr @pix_abs16_c, ptr %20, align 8, !tbaa !4
  %21 = getelementptr inbounds nuw i8, ptr %0, i64 16
  store ptr @pix_abs8_c, ptr %21, align 8, !tbaa !4
  %22 = getelementptr inbounds nuw i8, ptr %0, i64 56
  store ptr @sse16_c, ptr %22, align 8, !tbaa !4
  %23 = getelementptr inbounds nuw i8, ptr %0, i64 64
  store ptr @sse8_c, ptr %23, align 8, !tbaa !4
  %24 = getelementptr inbounds nuw i8, ptr %0, i64 72
  store ptr @sse4_c, ptr %24, align 8, !tbaa !4
  %25 = getelementptr inbounds nuw i8, ptr %0, i64 200
  store ptr @quant_psnr16_c, ptr %25, align 8, !tbaa !4
  %26 = getelementptr inbounds nuw i8, ptr %0, i64 208
  store ptr @quant_psnr8x8_c, ptr %26, align 8, !tbaa !4
  %27 = getelementptr inbounds nuw i8, ptr %0, i64 296
  store ptr @rd16_c, ptr %27, align 8, !tbaa !4
  %28 = getelementptr inbounds nuw i8, ptr %0, i64 304
  store ptr @rd8x8_c, ptr %28, align 8, !tbaa !4
  %29 = getelementptr inbounds nuw i8, ptr %0, i64 248
  store ptr @bit16_c, ptr %29, align 8, !tbaa !4
  %30 = getelementptr inbounds nuw i8, ptr %0, i64 256
  store ptr @bit8x8_c, ptr %30, align 8, !tbaa !4
  %31 = getelementptr inbounds nuw i8, ptr %0, i64 344
  store ptr @vsad16_c, ptr %31, align 8, !tbaa !4
  %32 = getelementptr inbounds nuw i8, ptr %0, i64 352
  store ptr @vsad8_c, ptr %32, align 8, !tbaa !4
  %33 = getelementptr inbounds nuw i8, ptr %0, i64 376
  store ptr @vsad_intra16_c, ptr %33, align 8, !tbaa !4
  %34 = getelementptr inbounds nuw i8, ptr %0, i64 384
  store ptr @vsad_intra8_c, ptr %34, align 8, !tbaa !4
  %35 = getelementptr inbounds nuw i8, ptr %0, i64 392
  store ptr @vsse16_c, ptr %35, align 8, !tbaa !4
  %36 = getelementptr inbounds nuw i8, ptr %0, i64 400
  store ptr @vsse8_c, ptr %36, align 8, !tbaa !4
  %37 = getelementptr inbounds nuw i8, ptr %0, i64 424
  store ptr @vsse_intra16_c, ptr %37, align 8, !tbaa !4
  %38 = getelementptr inbounds nuw i8, ptr %0, i64 432
  store ptr @vsse_intra8_c, ptr %38, align 8, !tbaa !4
  %39 = getelementptr inbounds nuw i8, ptr %0, i64 440
  store ptr @nsse16_c, ptr %39, align 8, !tbaa !4
  %40 = getelementptr inbounds nuw i8, ptr %0, i64 448
  store ptr @nsse8_c, ptr %40, align 8, !tbaa !4
  tail call void @ff_dsputil_init_dwt(ptr noundef %0) #12
  %41 = getelementptr inbounds nuw i8, ptr %0, i64 744
  store ptr @pix_median_abs16_c, ptr %41, align 8, !tbaa !4
  %42 = getelementptr inbounds nuw i8, ptr %0, i64 752
  store ptr @pix_median_abs8_c, ptr %42, align 8, !tbaa !4
  ret void
}